; ModuleID = '58/666.c'
source_filename = "58/666.c"
target datalayout = "e-m:e-p270:32:32-p271:32:32-p272:64:64-i64:64-f80:128-n8:16:32:64-S128"
target triple = "x86_64-pc-linux-gnu"

@.str = private unnamed_addr constant [3 x i8] c"%d\00", align 1
@.str.1 = private unnamed_addr constant [3 x i8] c"1\0A\00", align 1
@.str.2 = private unnamed_addr constant [3 x i8] c"0\0A\00", align 1

; Function Attrs: noinline nounwind uwtable
define dso_local i32 @main() #0 {
  %1 = alloca i32, align 4
  %2 = alloca [82 x i8], align 16
  %3 = alloca i8*, align 8
  %4 = alloca i32, align 4
  %5 = alloca i32, align 4
  %6 = alloca i32, align 4
  %7 = alloca i32, align 4
  %8 = alloca i32, align 4
  store i32 0, i32* %1, align 4
  %9 = getelementptr inbounds [82 x i8], [82 x i8]* %2, i64 0, i64 0
  store i8* %9, i8** %3, align 8
  %10 = call i32 (i8*, ...) @__isoc99_scanf(i8* getelementptr inbounds ([3 x i8], [3 x i8]* @.str, i64 0, i64 0), i32* %4)
  %11 = call i32 @getchar()
  store i32 0, i32* %5, align 4
  br label %12

12:                                               ; preds = %147, %0
  %13 = load i32, i32* %5, align 4
  %14 = load i32, i32* %4, align 4
  %15 = icmp slt i32 %13, %14
  br i1 %15, label %16, label %150

16:                                               ; preds = %12
  %17 = getelementptr inbounds [82 x i8], [82 x i8]* %2, i64 0, i64 0
  %18 = call i32 (i8*, ...) bitcast (i32 (...)* @gets to i32 (i8*, ...)*)(i8* %17)
  %19 = getelementptr inbounds [82 x i8], [82 x i8]* %2, i64 0, i64 0
  %20 = call i64 @strlen(i8* %19) #3
  %21 = trunc i64 %20 to i32
  store i32 %21, i32* %8, align 4
  store i32 0, i32* %7, align 4
  store i32 0, i32* %6, align 4
  br label %22

22:                                               ; preds = %135, %16
  %23 = load i32, i32* %6, align 4
  %24 = load i32, i32* %8, align 4
  %25 = icmp slt i32 %23, %24
  br i1 %25, label %26, label %138

26:                                               ; preds = %22
  %27 = load i32, i32* %6, align 4
  %28 = icmp eq i32 %27, 0
  br i1 %28, label %29, label %72

29:                                               ; preds = %26
  %30 = load i8*, i8** %3, align 8
  %31 = load i32, i32* %6, align 4
  %32 = sext i32 %31 to i64
  %33 = getelementptr inbounds i8, i8* %30, i64 %32
  %34 = load i8, i8* %33, align 1
  %35 = sext i8 %34 to i32
  %36 = icmp sge i32 %35, 65
  br i1 %36, label %37, label %45

37:                                               ; preds = %29
  %38 = load i8*, i8** %3, align 8
  %39 = load i32, i32* %6, align 4
  %40 = sext i32 %39 to i64
  %41 = getelementptr inbounds i8, i8* %38, i64 %40
  %42 = load i8, i8* %41, align 1
  %43 = sext i8 %42 to i32
  %44 = icmp sle i32 %43, 90
  br i1 %44, label %69, label %45

45:                                               ; preds = %37, %29
  %46 = load i8*, i8** %3, align 8
  %47 = load i32, i32* %6, align 4
  %48 = sext i32 %47 to i64
  %49 = getelementptr inbounds i8, i8* %46, i64 %48
  %50 = load i8, i8* %49, align 1
  %51 = sext i8 %50 to i32
  %52 = icmp sge i32 %51, 97
  br i1 %52, label %53, label %61

53:                                               ; preds = %45
  %54 = load i8*, i8** %3, align 8
  %55 = load i32, i32* %6, align 4
  %56 = sext i32 %55 to i64
  %57 = getelementptr inbounds i8, i8* %54, i64 %56
  %58 = load i8, i8* %57, align 1
  %59 = sext i8 %58 to i32
  %60 = icmp sle i32 %59, 122
  br i1 %60, label %69, label %61

61:                                               ; preds = %53, %45
  %62 = load i8*, i8** %3, align 8
  %63 = load i32, i32* %6, align 4
  %64 = sext i32 %63 to i64
  %65 = getelementptr inbounds i8, i8* %62, i64 %64
  %66 = load i8, i8* %65, align 1
  %67 = sext i8 %66 to i32
  %68 = icmp eq i32 %67, 95
  br i1 %68, label %69, label %72

69:                                               ; preds = %61, %53, %37
  %70 = load i32, i32* %7, align 4
  %71 = add nsw i32 %70, 1
  store i32 %71, i32* %7, align 4
  br label %72

72:                                               ; preds = %69, %61, %26
  %73 = load i32, i32* %6, align 4
  %74 = icmp ne i32 %73, 0
  br i1 %74, label %75, label %134

75:                                               ; preds = %72
  %76 = load i8*, i8** %3, align 8
  %77 = load i32, i32* %6, align 4
  %78 = sext i32 %77 to i64
  %79 = getelementptr inbounds i8, i8* %76, i64 %78
  %80 = load i8, i8* %79, align 1
  %81 = sext i8 %80 to i32
  %82 = icmp sge i32 %81, 48
  br i1 %82, label %83, label %91

83:                                               ; preds = %75
  %84 = load i8*, i8** %3, align 8
  %85 = load i32, i32* %6, align 4
  %86 = sext i32 %85 to i64
  %87 = getelementptr inbounds i8, i8* %84, i64 %86
  %88 = load i8, i8* %87, align 1
  %89 = sext i8 %88 to i32
  %90 = icmp sle i32 %89, 57
  br i1 %90, label %131, label %91

91:                                               ; preds = %83, %75
  %92 = load i8*, i8** %3, align 8
  %93 = load i32, i32* %6, align 4
  %94 = sext i32 %93 to i64
  %95 = getelementptr inbounds i8, i8* %92, i64 %94
  %96 = load i8, i8* %95, align 1
  %97 = sext i8 %96 to i32
  %98 = icmp sge i32 %97, 65
  br i1 %98, label %99, label %107

99:                                               ; preds = %91
  %100 = load i8*, i8** %3, align 8
  %101 = load i32, i32* %6, align 4
  %102 = sext i32 %101 to i64
  %103 = getelementptr inbounds i8, i8* %100, i64 %102
  %104 = load i8, i8* %103, align 1
  %105 = sext i8 %104 to i32
  %106 = icmp sle i32 %105, 90
  br i1 %106, label %131, label %107

107:                                              ; preds = %99, %91
  %108 = load i8*, i8** %3, align 8
  %109 = load i32, i32* %6, align 4
  %110 = sext i32 %109 to i64
  %111 = getelementptr inbounds i8, i8* %108, i64 %110
  %112 = load i8, i8* %111, align 1
  %113 = sext i8 %112 to i32
  %114 = icmp sge i32 %113, 97
  br i1 %114, label %115, label %123

115:                                              ; preds = %107
  %116 = load i8*, i8** %3, align 8
  %117 = load i32, i32* %6, align 4
  %118 = sext i32 %117 to i64
  %119 = getelementptr inbounds i8, i8* %116, i64 %118
  %120 = load i8, i8* %119, align 1
  %121 = sext i8 %120 to i32
  %122 = icmp sle i32 %121, 122
  br i1 %122, label %131, label %123

123:                                              ; preds = %115, %107
  %124 = load i8*, i8** %3, align 8
  %125 = load i32, i32* %6, align 4
  %126 = sext i32 %125 to i64
  %127 = getelementptr inbounds i8, i8* %124, i64 %126
  %128 = load i8, i8* %127, align 1
  %129 = sext i8 %128 to i32
  %130 = icmp eq i32 %129, 95
  br i1 %130, label %131, label %134

131:                                              ; preds = %123, %115, %99, %83
  %132 = load i32, i32* %7, align 4
  %133 = add nsw i32 %132, 1
  store i32 %133, i32* %7, align 4
  br label %134

134:                                              ; preds = %131, %123, %72
  br label %135

135:                                              ; preds = %134
  %136 = load i32, i32* %6, align 4
  %137 = add nsw i32 %136, 1
  store i32 %137, i32* %6, align 4
  br label %22

138:                                              ; preds = %22
  %139 = load i32, i32* %7, align 4
  %140 = load i32, i32* %8, align 4
  %141 = icmp eq i32 %139, %140
  br i1 %141, label %142, label %144

142:                                              ; preds = %138
  %143 = call i32 (i8*, ...) @printf(i8* getelementptr inbounds ([3 x i8], [3 x i8]* @.str.1, i64 0, i64 0))
  br label %146

144:                                              ; preds = %138
  %145 = call i32 (i8*, ...) @printf(i8* getelementptr inbounds ([3 x i8], [3 x i8]* @.str.2, i64 0, i64 0))
  br label %146

146:                                              ; preds = %144, %142
  br label %147

147:                                              ; preds = %146
  %148 = load i32, i32* %5, align 4
  %149 = add nsw i32 %148, 1
  store i32 %149, i32* %5, align 4
  br label %12

150:                                              ; preds = %12
  ret i32 0
}

declare dso_local i32 @__isoc99_scanf(i8*, ...) #1

declare dso_local i32 @getchar() #1

declare dso_local i32 @gets(...) #1

; Function Attrs: nounwind readonly
declare dso_local i64 @strlen(i8*) #2

declare dso_local i32 @printf(i8*, ...) #1


!llvm.module.flags = !{!0}
!llvm.ident = !{!1}

!0 = !{i32 1, !"wchar_size", i32 4}
!1 = !{!"clang version 10.0.0-4ubuntu1 "}
